target datalayout = "e-m:e-p270:32:32-p271:32:32-p272:64:64-i64:64-i128:128-f80:128-n8:16:32:64-S128"
target triple = "x86_64-pc-linux-gnu"

%"struct.std::pair.6" = type { i32, i32 }

; Function Attrs: mustprogress nounwind uwtable
define linkonce_odr void @_ZNSt4pairIiiEC2IRiiTnNSt9enable_ifIXaaclsr5_PCCPE22_MoveConstructiblePairIT_T0_EEclsr5_PCCPE30_ImplicitlyMoveConvertiblePairIS4_S5_EEEbE4typeELb1EEEOS4_OS5_(ptr noundef nonnull align 4 dereferenceable(8) %0, ptr noundef nonnull align 4 dereferenceable(4) %1, ptr noundef nonnull align 4 dereferenceable(4) %2) unnamed_addr #5 comdat align 2 {
  %4 = alloca ptr, align 8
  %5 = alloca ptr, align 8
  %6 = alloca ptr, align 8
  store ptr %0, ptr %4, align 8
  store ptr %1, ptr %5, align 8
  store ptr %2, ptr %6, align 8
  %7 = load ptr, ptr %4, align 8
  %8 = getelementptr inbounds nuw %"struct.std::pair.6", ptr %7, i32 0, i32 0
  %9 = load ptr, ptr %5, align 8
  %10 = load i32, ptr %9, align 4
  store i32 %10, ptr %8, align 4
  %11 = getelementptr inbounds nuw %"struct.std::pair.6", ptr %7, i32 0, i32 1
  %12 = load ptr, ptr %6, align 8
  %13 = load i32, ptr %12, align 4
  store i32 %13, ptr %11, align 4
  ret void
}

; Function Attrs: mustprogress nounwind uwtable
define internal noundef i32 @_ZN10open_spiel11tiny_bridge12_GLOBAL__N_120CardsToChanceOutcomeEii(i32 noundef %0, i32 noundef %1) #5 {
  %3 = alloca i32, align 4
  %4 = alloca i32, align 4
  store i32 %0, ptr %3, align 4
  store i32 %1, ptr %4, align 4
  %5 = load i32, ptr %3, align 4
  %6 = load i32, ptr %3, align 4
  %7 = sub nsw i32 %6, 1
  %8 = mul nsw i32 %5, %7
  %9 = sdiv i32 %8, 2
  %10 = load i32, ptr %4, align 4
  %11 = add nsw i32 %9, %10
  ret i32 %11
}

; Function Attrs: mustprogress uwtable
define internal i64 @_ZN10open_spiel11tiny_bridge12_GLOBAL__N_120ChanceOutcomeToCardsEi(i32 noundef %0) #4 {
  %2 = alloca %"struct.std::pair.6", align 4
  %3 = alloca i32, align 4
  %4 = alloca i32, align 4
  %5 = alloca i32, align 4
  store i32 %0, ptr %3, align 4
  store i32 1, ptr %4, align 4
  br label %6

6:                                                ; preds = %12, %1
  %7 = load i32, ptr %4, align 4
  %8 = add nsw i32 %7, 1
  %9 = call noundef i32 @_ZN10open_spiel11tiny_bridge12_GLOBAL__N_120CardsToChanceOutcomeEii(i32 noundef %8, i32 noundef 0)
  %10 = load i32, ptr %3, align 4
  %11 = icmp sle i32 %9, %10
  br i1 %11, label %12, label %15

12:                                               ; preds = %6
  %13 = load i32, ptr %4, align 4
  %14 = add nsw i32 %13, 1
  store i32 %14, ptr %4, align 4
  br label %6, !llvm.loop !4

15:                                               ; preds = %6
  %16 = load i32, ptr %3, align 4
  %17 = load i32, ptr %4, align 4
  %18 = call noundef i32 @_ZN10open_spiel11tiny_bridge12_GLOBAL__N_120CardsToChanceOutcomeEii(i32 noundef %17, i32 noundef 0)
  %19 = sub nsw i32 %16, %18
  store i32 %19, ptr %5, align 4
  call void @_ZNSt4pairIiiEC2IRiiTnNSt9enable_ifIXaaclsr5_PCCPE22_MoveConstructiblePairIT_T0_EEclsr5_PCCPE30_ImplicitlyMoveConvertiblePairIS4_S5_EEEbE4typeELb1EEEOS4_OS5_(ptr noundef nonnull align 4 dereferenceable(8) %2, ptr noundef nonnull align 4 dereferenceable(4) %4, ptr noundef nonnull align 4 dereferenceable(4) %5)
  %20 = load i64, ptr %2, align 4
  ret i64 %20
}

; Function Attrs: mustprogress uwtable
define noundef zeroext i1 @_ZN10open_spiel11tiny_bridge12IsConsistentEll(i64 noundef %0, i64 noundef %1) #4 {
  %3 = alloca i64, align 8
  %4 = alloca i64, align 8
  %5 = alloca %"struct.std::pair.6", align 4
  %6 = alloca %"struct.std::pair.6", align 4
  store i64 %0, ptr %3, align 8
  store i64 %1, ptr %4, align 8
  %7 = load i64, ptr %3, align 8
  %8 = trunc i64 %7 to i32
  %9 = call i64 @_ZN10open_spiel11tiny_bridge12_GLOBAL__N_120ChanceOutcomeToCardsEi(i32 noundef %8)
  store i64 %9, ptr %5, align 4
  %10 = load i64, ptr %4, align 8
  %11 = trunc i64 %10 to i32
  %12 = call i64 @_ZN10open_spiel11tiny_bridge12_GLOBAL__N_120ChanceOutcomeToCardsEi(i32 noundef %11)
  store i64 %12, ptr %6, align 4
  %13 = getelementptr inbounds nuw %"struct.std::pair.6", ptr %5, i32 0, i32 0
  %14 = load i32, ptr %13, align 4
  %15 = getelementptr inbounds nuw %"struct.std::pair.6", ptr %6, i32 0, i32 0
  %16 = load i32, ptr %15, align 4
  %17 = icmp ne i32 %14, %16
  br i1 %17, label %18, label %36

18:                                               ; preds = %2
  %19 = getelementptr inbounds nuw %"struct.std::pair.6", ptr %5, i32 0, i32 1
  %20 = load i32, ptr %19, align 4
  %21 = getelementptr inbounds nuw %"struct.std::pair.6", ptr %6, i32 0, i32 1
  %22 = load i32, ptr %21, align 4
  %23 = icmp ne i32 %20, %22
  br i1 %23, label %24, label %36

24:                                               ; preds = %18
  %25 = getelementptr inbounds nuw %"struct.std::pair.6", ptr %5, i32 0, i32 0
  %26 = load i32, ptr %25, align 4
  %27 = getelementptr inbounds nuw %"struct.std::pair.6", ptr %6, i32 0, i32 1
  %28 = load i32, ptr %27, align 4
  %29 = icmp ne i32 %26, %28
  br i1 %29, label %30, label %36

30:                                               ; preds = %24
  %31 = getelementptr inbounds nuw %"struct.std::pair.6", ptr %5, i32 0, i32 1
  %32 = load i32, ptr %31, align 4
  %33 = getelementptr inbounds nuw %"struct.std::pair.6", ptr %6, i32 0, i32 0
  %34 = load i32, ptr %33, align 4
  %35 = icmp ne i32 %32, %34
  br label %36

36:                                               ; preds = %30, %24, %18, %2
  %37 = phi i1 [ false, %24 ], [ false, %18 ], [ false, %2 ], [ %35, %30 ]
  ret i1 %37
}