; Function Attrs: mustprogress nofree norecurse nosync nounwind willreturn memory(none) uwtable
define noundef zeroext i1 @_ZN10open_spiel11tiny_bridge12IsConsistentEll(i64 noundef %0, i64 noundef %1) local_unnamed_addr #13 {
  %3 = trunc i64 %0 to i32
  br label %4

4:                                                ; preds = %4, %2
  %storemerge.i = phi i32 [ 1, %2 ], [ %5, %4 ]
  %5 = add nuw nsw i32 %storemerge.i, 1
  %6 = mul nuw nsw i32 %5, %storemerge.i
  %7 = lshr i32 %6, 1
  %.not.i = icmp sgt i32 %7, %3
  br i1 %.not.i, label %_ZN10open_spiel11tiny_bridge12_GLOBAL__N_120ChanceOutcomeToCardsEi.exit, label %4, !llvm.loop !4

_ZN10open_spiel11tiny_bridge12_GLOBAL__N_120ChanceOutcomeToCardsEi.exit: ; preds = %4
  %8 = trunc i64 %1 to i32
  br label %9

9:                                                ; preds = %9, %_ZN10open_spiel11tiny_bridge12_GLOBAL__N_120ChanceOutcomeToCardsEi.exit
  %storemerge.i11 = phi i32 [ 1, %_ZN10open_spiel11tiny_bridge12_GLOBAL__N_120ChanceOutcomeToCardsEi.exit ], [ %10, %9 ]
  %10 = add nuw nsw i32 %storemerge.i11, 1
  %11 = mul nuw nsw i32 %10, %storemerge.i11
  %12 = lshr i32 %11, 1
  %.not.i12 = icmp sgt i32 %12, %8
  br i1 %.not.i12, label %_ZN10open_spiel11tiny_bridge12_GLOBAL__N_120ChanceOutcomeToCardsEi.exit18, label %9, !llvm.loop !4

_ZN10open_spiel11tiny_bridge12_GLOBAL__N_120ChanceOutcomeToCardsEi.exit18: ; preds = %9
  %13 = add nsw i32 %storemerge.i, -1
  %14 = mul nsw i32 %13, %storemerge.i
  %.neg.i = sdiv i32 %14, -2
  %15 = add i32 %.neg.i, %3
  %16 = add nsw i32 %storemerge.i11, -1
  %17 = mul nsw i32 %16, %storemerge.i11
  %.neg.i13 = sdiv i32 %17, -2
  %18 = add i32 %.neg.i13, %8
  %.not = icmp ne i32 %storemerge.i, %storemerge.i11
  %.not8 = icmp ne i32 %15, %18
  %or.cond.not19 = and i1 %.not, %.not8
  %.not9 = icmp ne i32 %storemerge.i, %18
  %or.cond10.not = and i1 %.not9, %or.cond.not19
  %19 = icmp ne i32 %15, %storemerge.i11
  %spec.select = and i1 %19, %or.cond10.not
  ret i1 %spec.select
}